Certificate:
    Data:
        Version: 1 (0x0)
        Serial Number: 2 (0x2)
        Signature Algorithm: md5WithRSAEncryption
        Issuer: C=FI, ST=OU, L=Oulu, O=Sensinode, OU=R&D, CN=apex/emailAddress=info@sensinode.com
        Validity
            Not Before: Oct 12 16:03:08 2011 GMT
            Not After : Oct 11 16:03:08 2012 GMT
        Subject: C=FI, ST=OU, L=Oulu, O=Sensinode, OU=R&D, CN=apex/emailAddress=info@sensinode.com
        Subject Public Key Info:
            Public Key Algorithm: rsaEncryption
                Public-Key: (512 bit)
                Modulus:
                    00:b7:cc:f9:53:2d:e2:17:0b:f9:b6:e8:b7:ef:09:
                    8e:7a:11:84:64:b3:57:b3:df:d2:13:ef:04:f7:1c:
                    7f:1b:3f:06:56:6b:60:e8:1f:47:31:f8:b5:f6:ae:
                    05:24:a6:48:bc:f2:33:e6:9d:74:c9:ff:57:aa:91:
                    fb:42:2a:32:3f
                Exponent: 65537 (0x10001)
    Signature Algorithm: md5WithRSAEncryption
        6b:a9:75:23:97:55:68:61:90:45:41:54:f5:be:66:19:f3:57:
        70:ef:d5:fb:30:05:9b:10:af:f5:e3:f4:62:e1:0d:e6:c9:18:
        45:62:b0:d9:da:bf:42:ae:e4:ef:02:b0:bf:cc:04:18:43:d9:
        c0:80:ef:e5:55:0d:4b:eb:01:e8
-----BEGIN CERTIFICATE-----
MIIB5DCCAY4CAQIwDQYJKoZIhvcNAQEEBQAwfTELMAkGA1UEBhMCRkkxCzAJBgNV
BAgMAk9VMQ0wCwYDVQQHDARPdWx1MRIwEAYDVQQKDAlTZW5zaW5vZGUxDDAKBgNV
BAsMA1ImRDENMAsGA1UEAwwEYXBleDEhMB8GCSqGSIb3DQEJARYSaW5mb0BzZW5z
aW5vZGUuY29tMB4XDTExMTAxMjE2MDMwOFoXDTEyMTAxMTE2MDMwOFowfTELMAkG
A1UEBhMCRkkxCzAJBgNVBAgMAk9VMQ0wCwYDVQQHDARPdWx1MRIwEAYDVQQKDAlT
ZW5zaW5vZGUxDDAKBgNVBAsMA1ImRDENMAsGA1UEAwwEYXBleDEhMB8GCSqGSIb3
DQEJARYSaW5mb0BzZW5zaW5vZGUuY29tMFwwDQYJKoZIhvcNAQEBBQADSwAwSAJB
ALfM+VMt4hcL+bbot+8JjnoRhGSzV7Pf0hPvBPccfxs/BlZrYOgfRzH4tfauBSSm
SLzyM+addMn/V6qR+0IqMj8CAwEAATANBgkqhkiG9w0BAQQFAANBAGupdSOXVWhh
kEVBVPW+ZhnzV3Dv1fswBZsQr/Xj9GLhDebJGEVisNnav0Ku5O8CsL/MBBhD2cCA
7+VVDUvrAeg=
-----END CERTIFICATE-----
