Certificate:
    Data:
        Version: 1 (0x0)
        Serial Number: 1 (0x1)
        Signature Algorithm: md5WithRSAEncryption
        Issuer: C=FI, ST=OU, L=Oulu, O=Sensinode, OU=R&D, CN=apex/emailAddress=info@sensinode.com
        Validity
            Not Before: Oct 12 15:58:22 2011 GMT
            Not After : Oct 11 15:58:22 2012 GMT
        Subject: C=FI, ST=OU, L=Oulu, O=Sensinode, OU=R&D, CN=apex/emailAddress=info@sensinode.com
        Subject Public Key Info:
            Public Key Algorithm: rsaEncryption
                Public-Key: (512 bit)
                Modulus:
                    00:ad:af:d0:34:23:37:93:e5:da:98:fd:18:a6:5f:
                    11:5c:20:53:d7:fc:cb:38:65:d0:3a:76:4c:bc:67:
                    89:1a:04:7e:40:31:a6:3c:fd:66:30:2a:f5:11:ce:
                    a0:2c:43:51:39:c5:8d:da:dc:da:e8:50:eb:2c:75:
                    21:ab:ed:9d:ab
                Exponent: 65537 (0x10001)
    Signature Algorithm: md5WithRSAEncryption
        5f:b0:93:94:62:60:33:38:de:93:ed:b8:b1:0a:98:dc:42:c5:
        bf:c1:54:e1:27:19:77:6f:62:96:71:ee:cf:03:6e:f7:e4:5c:
        8f:80:a6:10:8b:49:e5:cf:4f:f9:8d:be:05:d1:03:78:c5:d6:
        d6:82:63:81:c7:74:7d:16:2d:a9
-----BEGIN CERTIFICATE-----
MIIB5DCCAY4CAQEwDQYJKoZIhvcNAQEEBQAwfTELMAkGA1UEBhMCRkkxCzAJBgNV
BAgMAk9VMQ0wCwYDVQQHDARPdWx1MRIwEAYDVQQKDAlTZW5zaW5vZGUxDDAKBgNV
BAsMA1ImRDENMAsGA1UEAwwEYXBleDEhMB8GCSqGSIb3DQEJARYSaW5mb0BzZW5z
aW5vZGUuY29tMB4XDTExMTAxMjE1NTgyMloXDTEyMTAxMTE1NTgyMlowfTELMAkG
A1UEBhMCRkkxCzAJBgNVBAgMAk9VMQ0wCwYDVQQHDARPdWx1MRIwEAYDVQQKDAlT
ZW5zaW5vZGUxDDAKBgNVBAsMA1ImRDENMAsGA1UEAwwEYXBleDEhMB8GCSqGSIb3
DQEJARYSaW5mb0BzZW5zaW5vZGUuY29tMFwwDQYJKoZIhvcNAQEBBQADSwAwSAJB
AK2v0DQjN5Pl2pj9GKZfEVwgU9f8yzhl0Dp2TLxniRoEfkAxpjz9ZjAq9RHOoCxD
UTnFjdrc2uhQ6yx1IavtnasCAwEAATANBgkqhkiG9w0BAQQFAANBAF+wk5RiYDM4
3pPtuLEKmNxCxb/BVOEnGXdvYpZx7s8DbvfkXI+AphCLSeXPT/mNvgXRA3jF1taC
Y4HHdH0WLak=
-----END CERTIFICATE-----
